target datalayout = "e-m:e-p270:32:32-p271:32:32-p272:64:64-i64:64-i128:128-f80:128-n8:16:32:64-S128"
target triple = "x86_64-pc-linux-gnu"

%struct.png_XYZ = type { i32, i32, i32, i32, i32, i32, i32, i32, i32 }
%struct.png_xy = type { i32, i32, i32, i32, i32, i32, i32, i32 }
%struct.png_struct_def = type { [1 x %struct.__jmp_buf_tag], ptr, ptr, i64, ptr, ptr, ptr, ptr, ptr, ptr, ptr, ptr, i8, i8, i32, i32, i32, i32, %struct.z_stream_s, i32, i32, i32, i32, i64, i32, i32, i32, ptr, ptr, i64, i32, i32, ptr, i16, i32, i16, i8, i8, i8, i8, i8, i8, i8, i8, i8, i8, i8, i8, i8, i8, i16, i8, i32, %struct.png_color_16_struct, %struct.png_color_16_struct, i32, i32, ptr, ptr, ptr, ptr, ptr, ptr, %struct.png_color_8_struct, %struct.png_color_8_struct, ptr, %struct.png_color_16_struct, ptr, ptr, ptr, ptr, ptr, ptr, ptr, ptr, ptr, i32, i32, i64, i64, i64, i64, i32, i32, ptr, ptr, [29 x i8], i32, ptr, ptr, i32, i32, ptr, i8, i8, i16, i16, ptr, i32, i8, ptr, ptr, ptr, ptr, ptr, ptr, ptr, i8, i32, i32, i32, i64, %struct.png_unknown_chunk_t, i64, ptr, i64, i32, i32, ptr, [4 x ptr], %struct.png_colorspace }
%struct.__jmp_buf_tag = type { [8 x i64], i32, %struct.__sigset_t }
%struct.__sigset_t = type { [16 x i64] }
%struct.z_stream_s = type { ptr, i32, i64, ptr, i32, i64, ptr, ptr, ptr, ptr, ptr, i32, i64, i64 }
%struct.png_color_8_struct = type { i8, i8, i8, i8, i8 }
%struct.png_color_16_struct = type { i8, i16, i16, i16, i16 }
%struct.png_unknown_chunk_t = type { [5 x i8], ptr, i64, i8 }
%struct.png_colorspace = type { i32, %struct.png_xy, %struct.png_XYZ, i16, i16 }

; Function Attrs: nounwind uwtable
define hidden noalias ptr @png_create_png_struct(ptr noundef %0, ptr noundef %1, ptr noundef %2, ptr noundef %3, ptr noundef %4, ptr noundef %5, ptr noundef %6) #0 {
  %8 = alloca ptr, align 8
  %9 = alloca ptr, align 8
  %10 = alloca ptr, align 8
  %11 = alloca ptr, align 8
  %12 = alloca ptr, align 8
  %13 = alloca ptr, align 8
  %14 = alloca ptr, align 8
  %15 = alloca ptr, align 8
  %16 = alloca %struct.png_struct_def, align 8
  %17 = alloca [1 x %struct.__jmp_buf_tag], align 16
  %18 = alloca ptr, align 8
  store ptr %0, ptr %9, align 8
  store ptr %1, ptr %10, align 8
  store ptr %2, ptr %11, align 8
  store ptr %3, ptr %12, align 8
  store ptr %4, ptr %13, align 8
  store ptr %5, ptr %14, align 8
  store ptr %6, ptr %15, align 8
  call void @llvm.memset.p0.i64(ptr align 8 %16, i8 0, i64 1152, i1 false)
  %19 = getelementptr inbounds %struct.png_struct_def, ptr %16, i32 0, i32 108
  store i32 8000, ptr %19, align 4
  %20 = getelementptr inbounds %struct.png_struct_def, ptr %16, i32 0, i32 109
  store i32 8000, ptr %20, align 8
  %21 = getelementptr inbounds %struct.png_struct_def, ptr %16, i32 0, i32 110
  store i32 1000, ptr %21, align 4
  %22 = getelementptr inbounds %struct.png_struct_def, ptr %16, i32 0, i32 111
  store i64 8000000, ptr %22, align 8
  %23 = load ptr, ptr %13, align 8
  %24 = load ptr, ptr %14, align 8
  %25 = load ptr, ptr %15, align 8
  call void @png_set_mem_fn(ptr noundef %16, ptr noundef %23, ptr noundef %24, ptr noundef %25)
  %26 = load ptr, ptr %10, align 8
  %27 = load ptr, ptr %11, align 8
  %28 = load ptr, ptr %12, align 8
  call void @png_set_error_fn(ptr noundef %16, ptr noundef %26, ptr noundef %27, ptr noundef %28)
  %29 = getelementptr inbounds [1 x %struct.__jmp_buf_tag], ptr %17, i64 0, i64 0
  %30 = call i32 @_setjmp(ptr noundef %29) #12
  %31 = icmp ne i32 %30, 0
  br i1 %31, label %58, label %32

32:                                               ; preds = %7
  %33 = getelementptr inbounds %struct.png_struct_def, ptr %16, i32 0, i32 2
  store ptr %17, ptr %33, align 8
  %34 = getelementptr inbounds %struct.png_struct_def, ptr %16, i32 0, i32 3
  store i64 0, ptr %34, align 8
  %35 = getelementptr inbounds %struct.png_struct_def, ptr %16, i32 0, i32 1
  store ptr @longjmp, ptr %35, align 8
  %36 = load ptr, ptr %9, align 8
  %37 = call i32 @png_user_version_check(ptr noundef %16, ptr noundef %36)
  %38 = icmp ne i32 %37, 0
  br i1 %38, label %39, label %57

39:                                               ; preds = %32
  %40 = call noalias ptr @png_malloc_warn(ptr noundef %16, i64 noundef 1152)
  store ptr %40, ptr %18, align 8
  %41 = load ptr, ptr %18, align 8
  %42 = icmp ne ptr %41, null
  br i1 %42, label %43, label %56

43:                                               ; preds = %39
  %44 = getelementptr inbounds %struct.png_struct_def, ptr %16, i32 0, i32 18
  %45 = getelementptr inbounds %struct.z_stream_s, ptr %44, i32 0, i32 8
  store ptr @png_zalloc, ptr %45, align 8
  %46 = getelementptr inbounds %struct.png_struct_def, ptr %16, i32 0, i32 18
  %47 = getelementptr inbounds %struct.z_stream_s, ptr %46, i32 0, i32 9
  store ptr @png_zfree, ptr %47, align 8
  %48 = load ptr, ptr %18, align 8
  %49 = getelementptr inbounds %struct.png_struct_def, ptr %16, i32 0, i32 18
  %50 = getelementptr inbounds %struct.z_stream_s, ptr %49, i32 0, i32 10
  store ptr %48, ptr %50, align 8
  %51 = getelementptr inbounds %struct.png_struct_def, ptr %16, i32 0, i32 2
  store ptr null, ptr %51, align 8
  %52 = getelementptr inbounds %struct.png_struct_def, ptr %16, i32 0, i32 3
  store i64 0, ptr %52, align 8
  %53 = getelementptr inbounds %struct.png_struct_def, ptr %16, i32 0, i32 1
  store ptr null, ptr %53, align 8
  %54 = load ptr, ptr %18, align 8
  call void @llvm.memcpy.p0.p0.i64(ptr align 8 %54, ptr align 8 %16, i64 1152, i1 false)
  %55 = load ptr, ptr %18, align 8
  store ptr %55, ptr %8, align 8
  br label %59

56:                                               ; preds = %39
  br label %57

57:                                               ; preds = %56, %32
  br label %58

58:                                               ; preds = %57, %7
  store ptr null, ptr %8, align 8
  br label %59

59:                                               ; preds = %58, %43
  %60 = load ptr, ptr %8, align 8
  ret ptr %60
}